
robokits.elf:     file format elf32-avr

Sections:
Idx Name          Size      VMA       LMA       File off  Algn
  0 .text         000000a4  00000000  00000000  00000054  2**1
                  CONTENTS, ALLOC, LOAD, READONLY, CODE
  1 .stab         00000378  00000000  00000000  000000f8  2**2
                  CONTENTS, READONLY, DEBUGGING
  2 .stabstr      000006b6  00000000  00000000  00000470  2**0
                  CONTENTS, READONLY, DEBUGGING
Disassembly of section .text:

00000000 <__vectors>:
   0:	12 c0       	rjmp	.+36     	; 0x26 <__ctors_end>
   2:	2c c0       	rjmp	.+88     	; 0x5c <__bad_interrupt>
   4:	2b c0       	rjmp	.+86     	; 0x5c <__bad_interrupt>
   6:	2a c0       	rjmp	.+84     	; 0x5c <__bad_interrupt>
   8:	29 c0       	rjmp	.+82     	; 0x5c <__bad_interrupt>
   a:	28 c0       	rjmp	.+80     	; 0x5c <__bad_interrupt>
   c:	27 c0       	rjmp	.+78     	; 0x5c <__bad_interrupt>
   e:	26 c0       	rjmp	.+76     	; 0x5c <__bad_interrupt>
  10:	25 c0       	rjmp	.+74     	; 0x5c <__bad_interrupt>
  12:	24 c0       	rjmp	.+72     	; 0x5c <__bad_interrupt>
  14:	23 c0       	rjmp	.+70     	; 0x5c <__bad_interrupt>
  16:	22 c0       	rjmp	.+68     	; 0x5c <__bad_interrupt>
  18:	21 c0       	rjmp	.+66     	; 0x5c <__bad_interrupt>
  1a:	20 c0       	rjmp	.+64     	; 0x5c <__bad_interrupt>
  1c:	1f c0       	rjmp	.+62     	; 0x5c <__bad_interrupt>
  1e:	1e c0       	rjmp	.+60     	; 0x5c <__bad_interrupt>
  20:	1d c0       	rjmp	.+58     	; 0x5c <__bad_interrupt>
  22:	1c c0       	rjmp	.+56     	; 0x5c <__bad_interrupt>
  24:	1b c0       	rjmp	.+54     	; 0x5c <__bad_interrupt>

00000026 <__ctors_end>:
  26:	11 24       	eor	r1, r1
  28:	1f be       	out	0x3f, r1	; 63
  2a:	cf e5       	ldi	r28, 0x5F	; 95
  2c:	d4 e0       	ldi	r29, 0x04	; 4
  2e:	de bf       	out	0x3e, r29	; 62
  30:	cd bf       	out	0x3d, r28	; 61

00000032 <__do_copy_data>:
  32:	10 e0       	ldi	r17, 0x00	; 0
  34:	a0 e6       	ldi	r26, 0x60	; 96
  36:	b0 e0       	ldi	r27, 0x00	; 0
  38:	e4 ea       	ldi	r30, 0xA4	; 164
  3a:	f0 e0       	ldi	r31, 0x00	; 0
  3c:	02 c0       	rjmp	.+4      	; 0x42 <.do_copy_data_start>

0000003e <.do_copy_data_loop>:
  3e:	05 90       	lpm	r0, Z+
  40:	0d 92       	st	X+, r0

00000042 <.do_copy_data_start>:
  42:	a0 36       	cpi	r26, 0x60	; 96
  44:	b1 07       	cpc	r27, r17
  46:	d9 f7       	brne	.-10     	; 0x3e <.do_copy_data_loop>

00000048 <__do_clear_bss>:
  48:	10 e0       	ldi	r17, 0x00	; 0
  4a:	a0 e6       	ldi	r26, 0x60	; 96
  4c:	b0 e0       	ldi	r27, 0x00	; 0
  4e:	01 c0       	rjmp	.+2      	; 0x52 <.do_clear_bss_start>

00000050 <.do_clear_bss_loop>:
  50:	1d 92       	st	X+, r1

00000052 <.do_clear_bss_start>:
  52:	a0 36       	cpi	r26, 0x60	; 96
  54:	b1 07       	cpc	r27, r17
  56:	e1 f7       	brne	.-8      	; 0x50 <.do_clear_bss_loop>
  58:	02 d0       	rcall	.+4      	; 0x5e <main>
  5a:	22 c0       	rjmp	.+68     	; 0xa0 <_exit>

0000005c <__bad_interrupt>:
  5c:	d1 cf       	rjmp	.-94     	; 0x0 <__vectors>

0000005e <main>:
/*----------------------------------------------------------------
-----------------MAIN PROGRAM-------------------------------------
-----------------------------------------------------------------*/
int main(void)
{
	DDRB=0x04;						//SET DATA DIRECTION REGISTER
  5e:	84 e0       	ldi	r24, 0x04	; 4
  60:	87 bb       	out	0x17, r24	; 23
									//ONLY PORTB.0 IS OUTPUT
									//CONFIGURE AS PER REQUIREMENT
									//DEFAULT ALL OTHERS ARE INPUT
									//CHANGE ACCORDING TO USE
	
	DDRD=0xC1;						//SET DATA DIRECTION REGISTER
  62:	81 ec       	ldi	r24, 0xC1	; 193
  64:	81 bb       	out	0x11, r24	; 17
    milliseconds can be achieved.
 */
void
_delay_loop_2(uint16_t __count)
{
	__asm__ volatile (
  66:	24 e2       	ldi	r18, 0x24	; 36
  68:	34 ef       	ldi	r19, 0xF4	; 244
									//CHANGE ACCORDING TO USE	

	while(1)						//INFINITE LOOP
	{
						//ALL LED'S OFF
		cbi(PORTD,0);						//ALL LED'S ON
  6a:	90 98       	cbi	0x12, 0	; 18
  6c:	c9 01       	movw	r24, r18
  6e:	01 97       	sbiw	r24, 0x01	; 1
  70:	f1 f7       	brne	.-4      	; 0x6e <main+0x10>
  72:	c9 01       	movw	r24, r18
  74:	01 97       	sbiw	r24, 0x01	; 1
  76:	f1 f7       	brne	.-4      	; 0x74 <main+0x16>
  78:	c9 01       	movw	r24, r18
  7a:	01 97       	sbiw	r24, 0x01	; 1
  7c:	f1 f7       	brne	.-4      	; 0x7a <main+0x1c>
  7e:	c9 01       	movw	r24, r18
  80:	01 97       	sbiw	r24, 0x01	; 1
  82:	f1 f7       	brne	.-4      	; 0x80 <main+0x22>
										//FOR 1MHZ IT CAN BE UPTO 262MS (250 IS USED FOR THIS EXAMPLE)
										//SEE AVR LIBC USER MANUAL FOR MORE DETAIL.
		_delay_ms(250);					//DELAY IN MILLISECONDS 									
		_delay_ms(250);					//DELAY IN MILLISECONDS 		
		_delay_ms(250);					//DELAY IN MILLISECONDS 
		sbi(PORTD,0);						//ALL LED'S ON
  84:	90 9a       	sbi	0x12, 0	; 18
  86:	c9 01       	movw	r24, r18
  88:	01 97       	sbiw	r24, 0x01	; 1
  8a:	f1 f7       	brne	.-4      	; 0x88 <main+0x2a>
  8c:	c9 01       	movw	r24, r18
  8e:	01 97       	sbiw	r24, 0x01	; 1
  90:	f1 f7       	brne	.-4      	; 0x8e <main+0x30>
  92:	c9 01       	movw	r24, r18
  94:	01 97       	sbiw	r24, 0x01	; 1
  96:	f1 f7       	brne	.-4      	; 0x94 <main+0x36>
  98:	c9 01       	movw	r24, r18
  9a:	01 97       	sbiw	r24, 0x01	; 1
  9c:	f1 f7       	brne	.-4      	; 0x9a <main+0x3c>
  9e:	e5 cf       	rjmp	.-54     	; 0x6a <main+0xc>

000000a0 <_exit>:
  a0:	f8 94       	cli

000000a2 <__stop_program>:
  a2:	ff cf       	rjmp	.-2      	; 0xa2 <__stop_program>
